; Function Attrs: null_pointer_is_valid sspstrong uwtable
define internal noundef zeroext i1 @nettl_read(ptr noundef captures(none) %0, ptr noundef %1, ptr noundef %2, ptr noundef %3, ptr noundef writeonly captures(none) initializes((0, 8)) %4) #0 {
  %6 = load ptr, ptr %0, align 8
  %7 = tail call i64 @file_tell(ptr noundef %6)
  store i64 %7, ptr %4, align 8
  %8 = load ptr, ptr %0, align 8
  %9 = tail call fastcc zeroext i1 @nettl_read_rec(ptr noundef %0, ptr noundef %8, ptr noundef %1, ptr noundef %2, ptr noundef %3)
  br i1 %9, label %10, label %17

10:                                               ; preds = %5
  %11 = getelementptr inbounds nuw i8, ptr %0, i64 144
  %12 = load i32, ptr %11, align 8
  %13 = icmp eq i32 %12, 0
  %14 = getelementptr inbounds nuw i8, ptr %1, i64 72
  %15 = load i32, ptr %14, align 8
  br i1 %13, label %.sink.split, label %16

16:                                               ; preds = %10
  %.not = icmp eq i32 %12, %15
  br i1 %.not, label %17, label %.sink.split

.sink.split:                                      ; preds = %16, %10
  %.sink = phi i32 [ %15, %10 ], [ -1, %16 ]
  store i32 %.sink, ptr %11, align 8
  br label %17

17:                                               ; preds = %.sink.split, %16, %5
  ret i1 %9
}